(lp0
ccopy_reg
_reconstructor
p1
(cSudoklasses
board
p2
c__builtin__
object
p3
Ntp4
Rp5
(dp6
S'board'
p7
(lp8
(lp9
g1
(cSudoklasses
square
p10
g3
Ntp11
Rp12
(dp13
S'y'
p14
I0
sS'x'
p15
I0
sS'pot'
p16
(lp17
I1
aI2
aI3
aI4
aI5
aI6
aI7
aI8
aI9
asS'solved'
p18
I00
sbag1
(g10
g3
Ntp19
Rp20
(dp21
g14
I0
sg15
I1
sg16
(lp22
I1
aI2
aI3
aI4
aI5
aI6
aI7
aI8
aI9
asg18
I00
sbag1
(g10
g3
Ntp23
Rp24
(dp25
g14
I0
sg15
I2
sg16
(lp26
I1
aI2
aI3
aI4
aI5
aI6
aI7
aI8
aI9
asg18
I00
sbag1
(g10
g3
Ntp27
Rp28
(dp29
g14
I0
sg15
I3
sg16
(lp30
I1
aI2
aI3
aI4
aI5
aI6
aI7
aI8
aI9
asg18
I00
sbag1
(g10
g3
Ntp31
Rp32
(dp33
g14
I0
sg15
I4
sg16
(lp34
I9
asg18
I01
sbag1
(g10
g3
Ntp35
Rp36
(dp37
g14
I0
sg15
I5
sg16
(lp38
I1
aI2
aI3
aI4
aI5
aI6
aI7
aI8
aI9
asg18
I00
sbag1
(g10
g3
Ntp39
Rp40
(dp41
g14
I0
sg15
I6
sg16
(lp42
I1
aI2
aI3
aI4
aI5
aI6
aI7
aI8
aI9
asg18
I00
sbag1
(g10
g3
Ntp43
Rp44
(dp45
g14
I0
sg15
I7
sg16
(lp46
I1
aI2
aI3
aI4
aI5
aI6
aI7
aI8
aI9
asg18
I00
sbag1
(g10
g3
Ntp47
Rp48
(dp49
g14
I0
sg15
I8
sg16
(lp50
I1
aI2
aI3
aI4
aI5
aI6
aI7
aI8
aI9
asg18
I00
sbaa(lp51
g1
(g10
g3
Ntp52
Rp53
(dp54
g14
I1
sg15
I0
sg16
(lp55
I1
aI2
aI3
aI4
aI5
aI6
aI7
aI8
aI9
asg18
I00
sbag1
(g10
g3
Ntp56
Rp57
(dp58
g14
I1
sg15
I1
sg16
(lp59
I8
asg18
I01
sbag1
(g10
g3
Ntp60
Rp61
(dp62
g14
I1
sg15
I2
sg16
(lp63
I3
asg18
I01
sbag1
(g10
g3
Ntp64
Rp65
(dp66
g14
I1
sg15
I3
sg16
(lp67
I1
aI2
aI3
aI4
aI5
aI6
aI7
aI8
aI9
asg18
I00
sbag1
(g10
g3
Ntp68
Rp69
(dp70
g14
I1
sg15
I4
sg16
(lp71
I1
aI2
aI3
aI4
aI5
aI6
aI7
aI8
aI9
asg18
I00
sbag1
(g10
g3
Ntp72
Rp73
(dp74
g14
I1
sg15
I5
sg16
(lp75
I2
asg18
I01
sbag1
(g10
g3
Ntp76
Rp77
(dp78
g14
I1
sg15
I6
sg16
(lp79
I1
aI2
aI3
aI4
aI5
aI6
aI7
aI8
aI9
asg18
I00
sbag1
(g10
g3
Ntp80
Rp81
(dp82
g14
I1
sg15
I7
sg16
(lp83
I1
aI2
aI3
aI4
aI5
aI6
aI7
aI8
aI9
asg18
I00
sbag1
(g10
g3
Ntp84
Rp85
(dp86
g14
I1
sg15
I8
sg16
(lp87
I6
asg18
I01
sbaa(lp88
g1
(g10
g3
Ntp89
Rp90
(dp91
g14
I2
sg15
I0
sg16
(lp92
I2
asg18
I01
sbag1
(g10
g3
Ntp93
Rp94
(dp95
g14
I2
sg15
I1
sg16
(lp96
I5
asg18
I01
sbag1
(g10
g3
Ntp97
Rp98
(dp99
g14
I2
sg15
I2
sg16
(lp100
I1
aI2
aI3
aI4
aI5
aI6
aI7
aI8
aI9
asg18
I00
sbag1
(g10
g3
Ntp101
Rp102
(dp103
g14
I2
sg15
I3
sg16
(lp104
I7
asg18
I01
sbag1
(g10
g3
Ntp105
Rp106
(dp107
g14
I2
sg15
I4
sg16
(lp108
I1
aI2
aI3
aI4
aI5
aI6
aI7
aI8
aI9
asg18
I00
sbag1
(g10
g3
Ntp109
Rp110
(dp111
g14
I2
sg15
I5
sg16
(lp112
I1
aI2
aI3
aI4
aI5
aI6
aI7
aI8
aI9
asg18
I00
sbag1
(g10
g3
Ntp113
Rp114
(dp115
g14
I2
sg15
I6
sg16
(lp116
I8
asg18
I01
sbag1
(g10
g3
Ntp117
Rp118
(dp119
g14
I2
sg15
I7
sg16
(lp120
I1
aI2
aI3
aI4
aI5
aI6
aI7
aI8
aI9
asg18
I00
sbag1
(g10
g3
Ntp121
Rp122
(dp123
g14
I2
sg15
I8
sg16
(lp124
I4
asg18
I01
sbaa(lp125
g1
(g10
g3
Ntp126
Rp127
(dp128
g14
I3
sg15
I0
sg16
(lp129
I1
aI2
aI3
aI4
aI5
aI6
aI7
aI8
aI9
asg18
I00
sbag1
(g10
g3
Ntp130
Rp131
(dp132
g14
I3
sg15
I1
sg16
(lp133
I3
asg18
I01
sbag1
(g10
g3
Ntp134
Rp135
(dp136
g14
I3
sg15
I2
sg16
(lp137
I1
aI2
aI3
aI4
aI5
aI6
aI7
aI8
aI9
asg18
I00
sbag1
(g10
g3
Ntp138
Rp139
(dp140
g14
I3
sg15
I3
sg16
(lp141
I1
aI2
aI3
aI4
aI5
aI6
aI7
aI8
aI9
asg18
I00
sbag1
(g10
g3
Ntp142
Rp143
(dp144
g14
I3
sg15
I4
sg16
(lp145
I1
aI2
aI3
aI4
aI5
aI6
aI7
aI8
aI9
asg18
I00
sbag1
(g10
g3
Ntp146
Rp147
(dp148
g14
I3
sg15
I5
sg16
(lp149
I8
asg18
I01
sbag1
(g10
g3
Ntp150
Rp151
(dp152
g14
I3
sg15
I6
sg16
(lp153
I1
asg18
I01
sbag1
(g10
g3
Ntp154
Rp155
(dp156
g14
I3
sg15
I7
sg16
(lp157
I1
aI2
aI3
aI4
aI5
aI6
aI7
aI8
aI9
asg18
I00
sbag1
(g10
g3
Ntp158
Rp159
(dp160
g14
I3
sg15
I8
sg16
(lp161
I1
aI2
aI3
aI4
aI5
aI6
aI7
aI8
aI9
asg18
I00
sbaa(lp162
g1
(g10
g3
Ntp163
Rp164
(dp165
g14
I4
sg15
I0
sg16
(lp166
I6
asg18
I01
sbag1
(g10
g3
Ntp167
Rp168
(dp169
g14
I4
sg15
I1
sg16
(lp170
I1
aI2
aI3
aI4
aI5
aI6
aI7
aI8
aI9
asg18
I00
sbag1
(g10
g3
Ntp171
Rp172
(dp173
g14
I4
sg15
I2
sg16
(lp174
I1
aI2
aI3
aI4
aI5
aI6
aI7
aI8
aI9
asg18
I00
sbag1
(g10
g3
Ntp175
Rp176
(dp177
g14
I4
sg15
I3
sg16
(lp178
I1
asg18
I01
sbag1
(g10
g3
Ntp179
Rp180
(dp181
g14
I4
sg15
I4
sg16
(lp182
I1
aI2
aI3
aI4
aI5
aI6
aI7
aI8
aI9
asg18
I00
sbag1
(g10
g3
Ntp183
Rp184
(dp185
g14
I4
sg15
I5
sg16
(lp186
I9
asg18
I01
sbag1
(g10
g3
Ntp187
Rp188
(dp189
g14
I4
sg15
I6
sg16
(lp190
I1
aI2
aI3
aI4
aI5
aI6
aI7
aI8
aI9
asg18
I00
sbag1
(g10
g3
Ntp191
Rp192
(dp193
g14
I4
sg15
I7
sg16
(lp194
I1
aI2
aI3
aI4
aI5
aI6
aI7
aI8
aI9
asg18
I00
sbag1
(g10
g3
Ntp195
Rp196
(dp197
g14
I4
sg15
I8
sg16
(lp198
I7
asg18
I01
sbaa(lp199
g1
(g10
g3
Ntp200
Rp201
(dp202
g14
I5
sg15
I0
sg16
(lp203
I1
aI2
aI3
aI4
aI5
aI6
aI7
aI8
aI9
asg18
I00
sbag1
(g10
g3
Ntp204
Rp205
(dp206
g14
I5
sg15
I1
sg16
(lp207
I1
aI2
aI3
aI4
aI5
aI6
aI7
aI8
aI9
asg18
I00
sbag1
(g10
g3
Ntp208
Rp209
(dp210
g14
I5
sg15
I2
sg16
(lp211
I1
asg18
I01
sbag1
(g10
g3
Ntp212
Rp213
(dp214
g14
I5
sg15
I3
sg16
(lp215
I3
asg18
I01
sbag1
(g10
g3
Ntp216
Rp217
(dp218
g14
I5
sg15
I4
sg16
(lp219
I1
aI2
aI3
aI4
aI5
aI6
aI7
aI8
aI9
asg18
I00
sbag1
(g10
g3
Ntp220
Rp221
(dp222
g14
I5
sg15
I5
sg16
(lp223
I1
aI2
aI3
aI4
aI5
aI6
aI7
aI8
aI9
asg18
I00
sbag1
(g10
g3
Ntp224
Rp225
(dp226
g14
I5
sg15
I6
sg16
(lp227
I1
aI2
aI3
aI4
aI5
aI6
aI7
aI8
aI9
asg18
I00
sbag1
(g10
g3
Ntp228
Rp229
(dp230
g14
I5
sg15
I7
sg16
(lp231
I6
asg18
I01
sbag1
(g10
g3
Ntp232
Rp233
(dp234
g14
I5
sg15
I8
sg16
(lp235
I1
aI2
aI3
aI4
aI5
aI6
aI7
aI8
aI9
asg18
I00
sbaa(lp236
g1
(g10
g3
Ntp237
Rp238
(dp239
g14
I6
sg15
I0
sg16
(lp240
I9
asg18
I01
sbag1
(g10
g3
Ntp241
Rp242
(dp243
g14
I6
sg15
I1
sg16
(lp244
I1
aI2
aI3
aI4
aI5
aI6
aI7
aI8
aI9
asg18
I00
sbag1
(g10
g3
Ntp245
Rp246
(dp247
g14
I6
sg15
I2
sg16
(lp248
I2
asg18
I01
sbag1
(g10
g3
Ntp249
Rp250
(dp251
g14
I6
sg15
I3
sg16
(lp252
I1
aI2
aI3
aI4
aI5
aI6
aI7
aI8
aI9
asg18
I00
sbag1
(g10
g3
Ntp253
Rp254
(dp255
g14
I6
sg15
I4
sg16
(lp256
I1
aI2
aI3
aI4
aI5
aI6
aI7
aI8
aI9
asg18
I00
sbag1
(g10
g3
Ntp257
Rp258
(dp259
g14
I6
sg15
I5
sg16
(lp260
I4
asg18
I01
sbag1
(g10
g3
Ntp261
Rp262
(dp263
g14
I6
sg15
I6
sg16
(lp264
I1
aI2
aI3
aI4
aI5
aI6
aI7
aI8
aI9
asg18
I00
sbag1
(g10
g3
Ntp265
Rp266
(dp267
g14
I6
sg15
I7
sg16
(lp268
I5
asg18
I01
sbag1
(g10
g3
Ntp269
Rp270
(dp271
g14
I6
sg15
I8
sg16
(lp272
I8
asg18
I01
sbaa(lp273
g1
(g10
g3
Ntp274
Rp275
(dp276
g14
I7
sg15
I0
sg16
(lp277
I3
asg18
I01
sbag1
(g10
g3
Ntp278
Rp279
(dp280
g14
I7
sg15
I1
sg16
(lp281
I1
aI2
aI3
aI4
aI5
aI6
aI7
aI8
aI9
asg18
I00
sbag1
(g10
g3
Ntp282
Rp283
(dp284
g14
I7
sg15
I2
sg16
(lp285
I1
aI2
aI3
aI4
aI5
aI6
aI7
aI8
aI9
asg18
I00
sbag1
(g10
g3
Ntp286
Rp287
(dp288
g14
I7
sg15
I3
sg16
(lp289
I2
asg18
I01
sbag1
(g10
g3
Ntp290
Rp291
(dp292
g14
I7
sg15
I4
sg16
(lp293
I1
aI2
aI3
aI4
aI5
aI6
aI7
aI8
aI9
asg18
I00
sbag1
(g10
g3
Ntp294
Rp295
(dp296
g14
I7
sg15
I5
sg16
(lp297
I1
aI2
aI3
aI4
aI5
aI6
aI7
aI8
aI9
asg18
I00
sbag1
(g10
g3
Ntp298
Rp299
(dp300
g14
I7
sg15
I6
sg16
(lp301
I6
asg18
I01
sbag1
(g10
g3
Ntp302
Rp303
(dp304
g14
I7
sg15
I7
sg16
(lp305
I4
asg18
I01
sbag1
(g10
g3
Ntp306
Rp307
(dp308
g14
I7
sg15
I8
sg16
(lp309
I1
aI2
aI3
aI4
aI5
aI6
aI7
aI8
aI9
asg18
I00
sbaa(lp310
g1
(g10
g3
Ntp311
Rp312
(dp313
g14
I8
sg15
I0
sg16
(lp314
I1
aI2
aI3
aI4
aI5
aI6
aI7
aI8
aI9
asg18
I00
sbag1
(g10
g3
Ntp315
Rp316
(dp317
g14
I8
sg15
I1
sg16
(lp318
I1
aI2
aI3
aI4
aI5
aI6
aI7
aI8
aI9
asg18
I00
sbag1
(g10
g3
Ntp319
Rp320
(dp321
g14
I8
sg15
I2
sg16
(lp322
I1
aI2
aI3
aI4
aI5
aI6
aI7
aI8
aI9
asg18
I00
sbag1
(g10
g3
Ntp323
Rp324
(dp325
g14
I8
sg15
I3
sg16
(lp326
I1
aI2
aI3
aI4
aI5
aI6
aI7
aI8
aI9
asg18
I00
sbag1
(g10
g3
Ntp327
Rp328
(dp329
g14
I8
sg15
I4
sg16
(lp330
I7
asg18
I01
sbag1
(g10
g3
Ntp331
Rp332
(dp333
g14
I8
sg15
I5
sg16
(lp334
I1
aI2
aI3
aI4
aI5
aI6
aI7
aI8
aI9
asg18
I00
sbag1
(g10
g3
Ntp335
Rp336
(dp337
g14
I8
sg15
I6
sg16
(lp338
I1
aI2
aI3
aI4
aI5
aI6
aI7
aI8
aI9
asg18
I00
sbag1
(g10
g3
Ntp339
Rp340
(dp341
g14
I8
sg15
I7
sg16
(lp342
I1
aI2
aI3
aI4
aI5
aI6
aI7
aI8
aI9
asg18
I00
sbag1
(g10
g3
Ntp343
Rp344
(dp345
g14
I8
sg15
I8
sg16
(lp346
I1
aI2
aI3
aI4
aI5
aI6
aI7
aI8
aI9
asg18
I00
sbaasS'name'
p347
S'MediumBoard'
p348
sbag1
(g2
g3
Ntp349
Rp350
(dp351
g7
(lp352
(lp353
g1
(g10
g3
Ntp354
Rp355
(dp356
g14
I0
sg15
I0
sg16
(lp357
I9
asg18
I01
sbag1
(g10
g3
Ntp358
Rp359
(dp360
g14
I0
sg15
I1
sg16
(lp361
I1
aI2
aI3
aI4
aI5
aI6
aI7
aI8
aI9
asg18
I00
sbag1
(g10
g3
Ntp362
Rp363
(dp364
g14
I0
sg15
I2
sg16
(lp365
I6
asg18
I01
sbag1
(g10
g3
Ntp366
Rp367
(dp368
g14
I0
sg15
I3
sg16
(lp369
I5
asg18
I01
sbag1
(g10
g3
Ntp370
Rp371
(dp372
g14
I0
sg15
I4
sg16
(lp373
I1
aI2
aI3
aI4
aI5
aI6
aI7
aI8
aI9
asg18
I00
sbag1
(g10
g3
Ntp374
Rp375
(dp376
g14
I0
sg15
I5
sg16
(lp377
I1
aI2
aI3
aI4
aI5
aI6
aI7
aI8
aI9
asg18
I00
sbag1
(g10
g3
Ntp378
Rp379
(dp380
g14
I0
sg15
I6
sg16
(lp381
I1
asg18
I01
sbag1
(g10
g3
Ntp382
Rp383
(dp384
g14
I0
sg15
I7
sg16
(lp385
I1
aI2
aI3
aI4
aI5
aI6
aI7
aI8
aI9
asg18
I00
sbag1
(g10
g3
Ntp386
Rp387
(dp388
g14
I0
sg15
I8
sg16
(lp389
I7
asg18
I01
sbaa(lp390
g1
(g10
g3
Ntp391
Rp392
(dp393
g14
I1
sg15
I0
sg16
(lp394
I1
aI2
aI3
aI4
aI5
aI6
aI7
aI8
aI9
asg18
I00
sbag1
(g10
g3
Ntp395
Rp396
(dp397
g14
I1
sg15
I1
sg16
(lp398
I2
asg18
I01
sbag1
(g10
g3
Ntp399
Rp400
(dp401
g14
I1
sg15
I2
sg16
(lp402
I1
aI2
aI3
aI4
aI5
aI6
aI7
aI8
aI9
asg18
I00
sbag1
(g10
g3
Ntp403
Rp404
(dp405
g14
I1
sg15
I3
sg16
(lp406
I1
aI2
aI3
aI4
aI5
aI6
aI7
aI8
aI9
asg18
I00
sbag1
(g10
g3
Ntp407
Rp408
(dp409
g14
I1
sg15
I4
sg16
(lp410
I1
aI2
aI3
aI4
aI5
aI6
aI7
aI8
aI9
asg18
I00
sbag1
(g10
g3
Ntp411
Rp412
(dp413
g14
I1
sg15
I5
sg16
(lp414
I8
asg18
I01
sbag1
(g10
g3
Ntp415
Rp416
(dp417
g14
I1
sg15
I6
sg16
(lp418
I1
aI2
aI3
aI4
aI5
aI6
aI7
aI8
aI9
asg18
I00
sbag1
(g10
g3
Ntp419
Rp420
(dp421
g14
I1
sg15
I7
sg16
(lp422
I1
aI2
aI3
aI4
aI5
aI6
aI7
aI8
aI9
asg18
I00
sbag1
(g10
g3
Ntp423
Rp424
(dp425
g14
I1
sg15
I8
sg16
(lp426
I5
asg18
I01
sbaa(lp427
g1
(g10
g3
Ntp428
Rp429
(dp430
g14
I2
sg15
I0
sg16
(lp431
I1
aI2
aI3
aI4
aI5
aI6
aI7
aI8
aI9
asg18
I00
sbag1
(g10
g3
Ntp432
Rp433
(dp434
g14
I2
sg15
I1
sg16
(lp435
I1
aI2
aI3
aI4
aI5
aI6
aI7
aI8
aI9
asg18
I00
sbag1
(g10
g3
Ntp436
Rp437
(dp438
g14
I2
sg15
I2
sg16
(lp439
I1
aI2
aI3
aI4
aI5
aI6
aI7
aI8
aI9
asg18
I00
sbag1
(g10
g3
Ntp440
Rp441
(dp442
g14
I2
sg15
I3
sg16
(lp443
I1
aI2
aI3
aI4
aI5
aI6
aI7
aI8
aI9
asg18
I00
sbag1
(g10
g3
Ntp444
Rp445
(dp446
g14
I2
sg15
I4
sg16
(lp447
I1
aI2
aI3
aI4
aI5
aI6
aI7
aI8
aI9
asg18
I00
sbag1
(g10
g3
Ntp448
Rp449
(dp450
g14
I2
sg15
I5
sg16
(lp451
I1
aI2
aI3
aI4
aI5
aI6
aI7
aI8
aI9
asg18
I00
sbag1
(g10
g3
Ntp452
Rp453
(dp454
g14
I2
sg15
I6
sg16
(lp455
I4
asg18
I01
sbag1
(g10
g3
Ntp456
Rp457
(dp458
g14
I2
sg15
I7
sg16
(lp459
I1
aI2
aI3
aI4
aI5
aI6
aI7
aI8
aI9
asg18
I00
sbag1
(g10
g3
Ntp460
Rp461
(dp462
g14
I2
sg15
I8
sg16
(lp463
I1
aI2
aI3
aI4
aI5
aI6
aI7
aI8
aI9
asg18
I00
sbaa(lp464
g1
(g10
g3
Ntp465
Rp466
(dp467
g14
I3
sg15
I0
sg16
(lp468
I1
aI2
aI3
aI4
aI5
aI6
aI7
aI8
aI9
asg18
I00
sbag1
(g10
g3
Ntp469
Rp470
(dp471
g14
I3
sg15
I1
sg16
(lp472
I1
aI2
aI3
aI4
aI5
aI6
aI7
aI8
aI9
asg18
I00
sbag1
(g10
g3
Ntp473
Rp474
(dp475
g14
I3
sg15
I2
sg16
(lp476
I1
aI2
aI3
aI4
aI5
aI6
aI7
aI8
aI9
asg18
I00
sbag1
(g10
g3
Ntp477
Rp478
(dp479
g14
I3
sg15
I3
sg16
(lp480
I3
asg18
I01
sbag1
(g10
g3
Ntp481
Rp482
(dp483
g14
I3
sg15
I4
sg16
(lp484
I1
aI2
aI3
aI4
aI5
aI6
aI7
aI8
aI9
asg18
I00
sbag1
(g10
g3
Ntp485
Rp486
(dp487
g14
I3
sg15
I5
sg16
(lp488
I7
asg18
I01
sbag1
(g10
g3
Ntp489
Rp490
(dp491
g14
I3
sg15
I6
sg16
(lp492
I1
aI2
aI3
aI4
aI5
aI6
aI7
aI8
aI9
asg18
I00
sbag1
(g10
g3
Ntp493
Rp494
(dp495
g14
I3
sg15
I7
sg16
(lp496
I6
asg18
I01
sbag1
(g10
g3
Ntp497
Rp498
(dp499
g14
I3
sg15
I8
sg16
(lp500
I1
aI2
aI3
aI4
aI5
aI6
aI7
aI8
aI9
asg18
I00
sbaa(lp501
g1
(g10
g3
Ntp502
Rp503
(dp504
g14
I4
sg15
I0
sg16
(lp505
I1
aI2
aI3
aI4
aI5
aI6
aI7
aI8
aI9
asg18
I00
sbag1
(g10
g3
Ntp506
Rp507
(dp508
g14
I4
sg15
I1
sg16
(lp509
I1
aI2
aI3
aI4
aI5
aI6
aI7
aI8
aI9
asg18
I00
sbag1
(g10
g3
Ntp510
Rp511
(dp512
g14
I4
sg15
I2
sg16
(lp513
I8
asg18
I01
sbag1
(g10
g3
Ntp514
Rp515
(dp516
g14
I4
sg15
I3
sg16
(lp517
I1
aI2
aI3
aI4
aI5
aI6
aI7
aI8
aI9
asg18
I00
sbag1
(g10
g3
Ntp518
Rp519
(dp520
g14
I4
sg15
I4
sg16
(lp521
I1
aI2
aI3
aI4
aI5
aI6
aI7
aI8
aI9
asg18
I00
sbag1
(g10
g3
Ntp522
Rp523
(dp524
g14
I4
sg15
I5
sg16
(lp525
I1
aI2
aI3
aI4
aI5
aI6
aI7
aI8
aI9
asg18
I00
sbag1
(g10
g3
Ntp526
Rp527
(dp528
g14
I4
sg15
I6
sg16
(lp529
I3
asg18
I01
sbag1
(g10
g3
Ntp530
Rp531
(dp532
g14
I4
sg15
I7
sg16
(lp533
I1
aI2
aI3
aI4
aI5
aI6
aI7
aI8
aI9
asg18
I00
sbag1
(g10
g3
Ntp534
Rp535
(dp536
g14
I4
sg15
I8
sg16
(lp537
I1
aI2
aI3
aI4
aI5
aI6
aI7
aI8
aI9
asg18
I00
sbaa(lp538
g1
(g10
g3
Ntp539
Rp540
(dp541
g14
I5
sg15
I0
sg16
(lp542
I1
aI2
aI3
aI4
aI5
aI6
aI7
aI8
aI9
asg18
I00
sbag1
(g10
g3
Ntp543
Rp544
(dp545
g14
I5
sg15
I1
sg16
(lp546
I3
asg18
I01
sbag1
(g10
g3
Ntp547
Rp548
(dp549
g14
I5
sg15
I2
sg16
(lp550
I1
aI2
aI3
aI4
aI5
aI6
aI7
aI8
aI9
asg18
I00
sbag1
(g10
g3
Ntp551
Rp552
(dp553
g14
I5
sg15
I3
sg16
(lp554
I6
asg18
I01
sbag1
(g10
g3
Ntp555
Rp556
(dp557
g14
I5
sg15
I4
sg16
(lp558
I1
aI2
aI3
aI4
aI5
aI6
aI7
aI8
aI9
asg18
I00
sbag1
(g10
g3
Ntp559
Rp560
(dp561
g14
I5
sg15
I5
sg16
(lp562
I9
asg18
I01
sbag1
(g10
g3
Ntp563
Rp564
(dp565
g14
I5
sg15
I6
sg16
(lp566
I1
aI2
aI3
aI4
aI5
aI6
aI7
aI8
aI9
asg18
I00
sbag1
(g10
g3
Ntp567
Rp568
(dp569
g14
I5
sg15
I7
sg16
(lp570
I1
aI2
aI3
aI4
aI5
aI6
aI7
aI8
aI9
asg18
I00
sbag1
(g10
g3
Ntp571
Rp572
(dp573
g14
I5
sg15
I8
sg16
(lp574
I1
aI2
aI3
aI4
aI5
aI6
aI7
aI8
aI9
asg18
I00
sbaa(lp575
g1
(g10
g3
Ntp576
Rp577
(dp578
g14
I6
sg15
I0
sg16
(lp579
I1
aI2
aI3
aI4
aI5
aI6
aI7
aI8
aI9
asg18
I00
sbag1
(g10
g3
Ntp580
Rp581
(dp582
g14
I6
sg15
I1
sg16
(lp583
I1
aI2
aI3
aI4
aI5
aI6
aI7
aI8
aI9
asg18
I00
sbag1
(g10
g3
Ntp584
Rp585
(dp586
g14
I6
sg15
I2
sg16
(lp587
I4
asg18
I01
sbag1
(g10
g3
Ntp588
Rp589
(dp590
g14
I6
sg15
I3
sg16
(lp591
I1
aI2
aI3
aI4
aI5
aI6
aI7
aI8
aI9
asg18
I00
sbag1
(g10
g3
Ntp592
Rp593
(dp594
g14
I6
sg15
I4
sg16
(lp595
I1
aI2
aI3
aI4
aI5
aI6
aI7
aI8
aI9
asg18
I00
sbag1
(g10
g3
Ntp596
Rp597
(dp598
g14
I6
sg15
I5
sg16
(lp599
I1
aI2
aI3
aI4
aI5
aI6
aI7
aI8
aI9
asg18
I00
sbag1
(g10
g3
Ntp600
Rp601
(dp602
g14
I6
sg15
I6
sg16
(lp603
I1
aI2
aI3
aI4
aI5
aI6
aI7
aI8
aI9
asg18
I00
sbag1
(g10
g3
Ntp604
Rp605
(dp606
g14
I6
sg15
I7
sg16
(lp607
I1
aI2
aI3
aI4
aI5
aI6
aI7
aI8
aI9
asg18
I00
sbag1
(g10
g3
Ntp608
Rp609
(dp610
g14
I6
sg15
I8
sg16
(lp611
I1
aI2
aI3
aI4
aI5
aI6
aI7
aI8
aI9
asg18
I00
sbaa(lp612
g1
(g10
g3
Ntp613
Rp614
(dp615
g14
I7
sg15
I0
sg16
(lp616
I8
asg18
I01
sbag1
(g10
g3
Ntp617
Rp618
(dp619
g14
I7
sg15
I1
sg16
(lp620
I1
aI2
aI3
aI4
aI5
aI6
aI7
aI8
aI9
asg18
I00
sbag1
(g10
g3
Ntp621
Rp622
(dp623
g14
I7
sg15
I2
sg16
(lp624
I1
aI2
aI3
aI4
aI5
aI6
aI7
aI8
aI9
asg18
I00
sbag1
(g10
g3
Ntp625
Rp626
(dp627
g14
I7
sg15
I3
sg16
(lp628
I4
asg18
I01
sbag1
(g10
g3
Ntp629
Rp630
(dp631
g14
I7
sg15
I4
sg16
(lp632
I1
aI2
aI3
aI4
aI5
aI6
aI7
aI8
aI9
asg18
I00
sbag1
(g10
g3
Ntp633
Rp634
(dp635
g14
I7
sg15
I5
sg16
(lp636
I1
aI2
aI3
aI4
aI5
aI6
aI7
aI8
aI9
asg18
I00
sbag1
(g10
g3
Ntp637
Rp638
(dp639
g14
I7
sg15
I6
sg16
(lp640
I1
aI2
aI3
aI4
aI5
aI6
aI7
aI8
aI9
asg18
I00
sbag1
(g10
g3
Ntp641
Rp642
(dp643
g14
I7
sg15
I7
sg16
(lp644
I1
asg18
I01
sbag1
(g10
g3
Ntp645
Rp646
(dp647
g14
I7
sg15
I8
sg16
(lp648
I1
aI2
aI3
aI4
aI5
aI6
aI7
aI8
aI9
asg18
I00
sbaa(lp649
g1
(g10
g3
Ntp650
Rp651
(dp652
g14
I8
sg15
I0
sg16
(lp653
I7
asg18
I01
sbag1
(g10
g3
Ntp654
Rp655
(dp656
g14
I8
sg15
I1
sg16
(lp657
I1
aI2
aI3
aI4
aI5
aI6
aI7
aI8
aI9
asg18
I00
sbag1
(g10
g3
Ntp658
Rp659
(dp660
g14
I8
sg15
I2
sg16
(lp661
I9
asg18
I01
sbag1
(g10
g3
Ntp662
Rp663
(dp664
g14
I8
sg15
I3
sg16
(lp665
I1
aI2
aI3
aI4
aI5
aI6
aI7
aI8
aI9
asg18
I00
sbag1
(g10
g3
Ntp666
Rp667
(dp668
g14
I8
sg15
I4
sg16
(lp669
I1
aI2
aI3
aI4
aI5
aI6
aI7
aI8
aI9
asg18
I00
sbag1
(g10
g3
Ntp670
Rp671
(dp672
g14
I8
sg15
I5
sg16
(lp673
I5
asg18
I01
sbag1
(g10
g3
Ntp674
Rp675
(dp676
g14
I8
sg15
I6
sg16
(lp677
I6
asg18
I01
sbag1
(g10
g3
Ntp678
Rp679
(dp680
g14
I8
sg15
I7
sg16
(lp681
I1
aI2
aI3
aI4
aI5
aI6
aI7
aI8
aI9
asg18
I00
sbag1
(g10
g3
Ntp682
Rp683
(dp684
g14
I8
sg15
I8
sg16
(lp685
I3
asg18
I01
sbaasg347
S'EvilBoard'
p686
sbag1
(g2
g3
Ntp687
Rp688
(dp689
g7
(lp690
(lp691
g1
(g10
g3
Ntp692
Rp693
(dp694
g14
I0
sg15
I0
sg16
(lp695
I5
asg18
I01
sbag1
(g10
g3
Ntp696
Rp697
(dp698
g14
I0
sg15
I1
sg16
(lp699
I1
aI2
aI3
aI4
aI5
aI6
aI7
aI8
aI9
asg18
I00
sbag1
(g10
g3
Ntp700
Rp701
(dp702
g14
I0
sg15
I2
sg16
(lp703
I7
asg18
I01
sbag1
(g10
g3
Ntp704
Rp705
(dp706
g14
I0
sg15
I3
sg16
(lp707
I1
aI2
aI3
aI4
aI5
aI6
aI7
aI8
aI9
asg18
I00
sbag1
(g10
g3
Ntp708
Rp709
(dp710
g14
I0
sg15
I4
sg16
(lp711
I1
aI2
aI3
aI4
aI5
aI6
aI7
aI8
aI9
asg18
I00
sbag1
(g10
g3
Ntp712
Rp713
(dp714
g14
I0
sg15
I5
sg16
(lp715
I2
asg18
I01
sbag1
(g10
g3
Ntp716
Rp717
(dp718
g14
I0
sg15
I6
sg16
(lp719
I3
asg18
I01
sbag1
(g10
g3
Ntp720
Rp721
(dp722
g14
I0
sg15
I7
sg16
(lp723
I1
asg18
I01
sbag1
(g10
g3
Ntp724
Rp725
(dp726
g14
I0
sg15
I8
sg16
(lp727
I8
asg18
I01
sbaa(lp728
g1
(g10
g3
Ntp729
Rp730
(dp731
g14
I1
sg15
I0
sg16
(lp732
I1
aI2
aI3
aI4
aI5
aI6
aI7
aI8
aI9
asg18
I00
sbag1
(g10
g3
Ntp733
Rp734
(dp735
g14
I1
sg15
I1
sg16
(lp736
I1
aI2
aI3
aI4
aI5
aI6
aI7
aI8
aI9
asg18
I00
sbag1
(g10
g3
Ntp737
Rp738
(dp739
g14
I1
sg15
I2
sg16
(lp740
I6
asg18
I01
sbag1
(g10
g3
Ntp741
Rp742
(dp743
g14
I1
sg15
I3
sg16
(lp744
I5
asg18
I01
sbag1
(g10
g3
Ntp745
Rp746
(dp747
g14
I1
sg15
I4
sg16
(lp748
I1
aI2
aI3
aI4
aI5
aI6
aI7
aI8
aI9
asg18
I00
sbag1
(g10
g3
Ntp749
Rp750
(dp751
g14
I1
sg15
I5
sg16
(lp752
I1
aI2
aI3
aI4
aI5
aI6
aI7
aI8
aI9
asg18
I00
sbag1
(g10
g3
Ntp753
Rp754
(dp755
g14
I1
sg15
I6
sg16
(lp756
I1
aI2
aI3
aI4
aI5
aI6
aI7
aI8
aI9
asg18
I00
sbag1
(g10
g3
Ntp757
Rp758
(dp759
g14
I1
sg15
I7
sg16
(lp760
I1
aI2
aI3
aI4
aI5
aI6
aI7
aI8
aI9
asg18
I00
sbag1
(g10
g3
Ntp761
Rp762
(dp763
g14
I1
sg15
I8
sg16
(lp764
I1
aI2
aI3
aI4
aI5
aI6
aI7
aI8
aI9
asg18
I00
sbaa(lp765
g1
(g10
g3
Ntp766
Rp767
(dp768
g14
I2
sg15
I0
sg16
(lp769
I9
asg18
I01
sbag1
(g10
g3
Ntp770
Rp771
(dp772
g14
I2
sg15
I1
sg16
(lp773
I1
aI2
aI3
aI4
aI5
aI6
aI7
aI8
aI9
asg18
I00
sbag1
(g10
g3
Ntp774
Rp775
(dp776
g14
I2
sg15
I2
sg16
(lp777
I1
aI2
aI3
aI4
aI5
aI6
aI7
aI8
aI9
asg18
I00
sbag1
(g10
g3
Ntp778
Rp779
(dp780
g14
I2
sg15
I3
sg16
(lp781
I1
aI2
aI3
aI4
aI5
aI6
aI7
aI8
aI9
asg18
I00
sbag1
(g10
g3
Ntp782
Rp783
(dp784
g14
I2
sg15
I4
sg16
(lp785
I3
asg18
I01
sbag1
(g10
g3
Ntp786
Rp787
(dp788
g14
I2
sg15
I5
sg16
(lp789
I1
aI2
aI3
aI4
aI5
aI6
aI7
aI8
aI9
asg18
I00
sbag1
(g10
g3
Ntp790
Rp791
(dp792
g14
I2
sg15
I6
sg16
(lp793
I1
aI2
aI3
aI4
aI5
aI6
aI7
aI8
aI9
asg18
I00
sbag1
(g10
g3
Ntp794
Rp795
(dp796
g14
I2
sg15
I7
sg16
(lp797
I1
aI2
aI3
aI4
aI5
aI6
aI7
aI8
aI9
asg18
I00
sbag1
(g10
g3
Ntp798
Rp799
(dp800
g14
I2
sg15
I8
sg16
(lp801
I1
aI2
aI3
aI4
aI5
aI6
aI7
aI8
aI9
asg18
I00
sbaa(lp802
g1
(g10
g3
Ntp803
Rp804
(dp805
g14
I3
sg15
I0
sg16
(lp806
I1
aI2
aI3
aI4
aI5
aI6
aI7
aI8
aI9
asg18
I00
sbag1
(g10
g3
Ntp807
Rp808
(dp809
g14
I3
sg15
I1
sg16
(lp810
I6
asg18
I01
sbag1
(g10
g3
Ntp811
Rp812
(dp813
g14
I3
sg15
I2
sg16
(lp814
I5
asg18
I01
sbag1
(g10
g3
Ntp815
Rp816
(dp817
g14
I3
sg15
I3
sg16
(lp818
I1
aI2
aI3
aI4
aI5
aI6
aI7
aI8
aI9
asg18
I00
sbag1
(g10
g3
Ntp819
Rp820
(dp821
g14
I3
sg15
I4
sg16
(lp822
I1
aI2
aI3
aI4
aI5
aI6
aI7
aI8
aI9
asg18
I00
sbag1
(g10
g3
Ntp823
Rp824
(dp825
g14
I3
sg15
I5
sg16
(lp826
I1
aI2
aI3
aI4
aI5
aI6
aI7
aI8
aI9
asg18
I00
sbag1
(g10
g3
Ntp827
Rp828
(dp829
g14
I3
sg15
I6
sg16
(lp830
I7
asg18
I01
sbag1
(g10
g3
Ntp831
Rp832
(dp833
g14
I3
sg15
I7
sg16
(lp834
I1
aI2
aI3
aI4
aI5
aI6
aI7
aI8
aI9
asg18
I00
sbag1
(g10
g3
Ntp835
Rp836
(dp837
g14
I3
sg15
I8
sg16
(lp838
I1
aI2
aI3
aI4
aI5
aI6
aI7
aI8
aI9
asg18
I00
sbaa(lp839
g1
(g10
g3
Ntp840
Rp841
(dp842
g14
I4
sg15
I0
sg16
(lp843
I1
aI2
aI3
aI4
aI5
aI6
aI7
aI8
aI9
asg18
I00
sbag1
(g10
g3
Ntp844
Rp845
(dp846
g14
I4
sg15
I1
sg16
(lp847
I1
aI2
aI3
aI4
aI5
aI6
aI7
aI8
aI9
asg18
I00
sbag1
(g10
g3
Ntp848
Rp849
(dp850
g14
I4
sg15
I2
sg16
(lp851
I1
aI2
aI3
aI4
aI5
aI6
aI7
aI8
aI9
asg18
I00
sbag1
(g10
g3
Ntp852
Rp853
(dp854
g14
I4
sg15
I3
sg16
(lp855
I1
aI2
aI3
aI4
aI5
aI6
aI7
aI8
aI9
asg18
I00
sbag1
(g10
g3
Ntp856
Rp857
(dp858
g14
I4
sg15
I4
sg16
(lp859
I7
asg18
I01
sbag1
(g10
g3
Ntp860
Rp861
(dp862
g14
I4
sg15
I5
sg16
(lp863
I1
aI2
aI3
aI4
aI5
aI6
aI7
aI8
aI9
asg18
I00
sbag1
(g10
g3
Ntp864
Rp865
(dp866
g14
I4
sg15
I6
sg16
(lp867
I1
aI2
aI3
aI4
aI5
aI6
aI7
aI8
aI9
asg18
I00
sbag1
(g10
g3
Ntp868
Rp869
(dp870
g14
I4
sg15
I7
sg16
(lp871
I1
aI2
aI3
aI4
aI5
aI6
aI7
aI8
aI9
asg18
I00
sbag1
(g10
g3
Ntp872
Rp873
(dp874
g14
I4
sg15
I8
sg16
(lp875
I1
aI2
aI3
aI4
aI5
aI6
aI7
aI8
aI9
asg18
I00
sbaa(lp876
g1
(g10
g3
Ntp877
Rp878
(dp879
g14
I5
sg15
I0
sg16
(lp880
I1
aI2
aI3
aI4
aI5
aI6
aI7
aI8
aI9
asg18
I00
sbag1
(g10
g3
Ntp881
Rp882
(dp883
g14
I5
sg15
I1
sg16
(lp884
I1
aI2
aI3
aI4
aI5
aI6
aI7
aI8
aI9
asg18
I00
sbag1
(g10
g3
Ntp885
Rp886
(dp887
g14
I5
sg15
I2
sg16
(lp888
I1
asg18
I01
sbag1
(g10
g3
Ntp889
Rp890
(dp891
g14
I5
sg15
I3
sg16
(lp892
I1
aI2
aI3
aI4
aI5
aI6
aI7
aI8
aI9
asg18
I00
sbag1
(g10
g3
Ntp893
Rp894
(dp895
g14
I5
sg15
I4
sg16
(lp896
I1
aI2
aI3
aI4
aI5
aI6
aI7
aI8
aI9
asg18
I00
sbag1
(g10
g3
Ntp897
Rp898
(dp899
g14
I5
sg15
I5
sg16
(lp900
I1
aI2
aI3
aI4
aI5
aI6
aI7
aI8
aI9
asg18
I00
sbag1
(g10
g3
Ntp901
Rp902
(dp903
g14
I5
sg15
I6
sg16
(lp904
I2
asg18
I01
sbag1
(g10
g3
Ntp905
Rp906
(dp907
g14
I5
sg15
I7
sg16
(lp908
I8
asg18
I01
sbag1
(g10
g3
Ntp909
Rp910
(dp911
g14
I5
sg15
I8
sg16
(lp912
I1
aI2
aI3
aI4
aI5
aI6
aI7
aI8
aI9
asg18
I00
sbaa(lp913
g1
(g10
g3
Ntp914
Rp915
(dp916
g14
I6
sg15
I0
sg16
(lp917
I1
aI2
aI3
aI4
aI5
aI6
aI7
aI8
aI9
asg18
I00
sbag1
(g10
g3
Ntp918
Rp919
(dp920
g14
I6
sg15
I1
sg16
(lp921
I1
aI2
aI3
aI4
aI5
aI6
aI7
aI8
aI9
asg18
I00
sbag1
(g10
g3
Ntp922
Rp923
(dp924
g14
I6
sg15
I2
sg16
(lp925
I1
aI2
aI3
aI4
aI5
aI6
aI7
aI8
aI9
asg18
I00
sbag1
(g10
g3
Ntp926
Rp927
(dp928
g14
I6
sg15
I3
sg16
(lp929
I1
aI2
aI3
aI4
aI5
aI6
aI7
aI8
aI9
asg18
I00
sbag1
(g10
g3
Ntp930
Rp931
(dp932
g14
I6
sg15
I4
sg16
(lp933
I6
asg18
I01
sbag1
(g10
g3
Ntp934
Rp935
(dp936
g14
I6
sg15
I5
sg16
(lp937
I1
aI2
aI3
aI4
aI5
aI6
aI7
aI8
aI9
asg18
I00
sbag1
(g10
g3
Ntp938
Rp939
(dp940
g14
I6
sg15
I6
sg16
(lp941
I1
aI2
aI3
aI4
aI5
aI6
aI7
aI8
aI9
asg18
I00
sbag1
(g10
g3
Ntp942
Rp943
(dp944
g14
I6
sg15
I7
sg16
(lp945
I1
aI2
aI3
aI4
aI5
aI6
aI7
aI8
aI9
asg18
I00
sbag1
(g10
g3
Ntp946
Rp947
(dp948
g14
I6
sg15
I8
sg16
(lp949
I2
asg18
I01
sbaa(lp950
g1
(g10
g3
Ntp951
Rp952
(dp953
g14
I7
sg15
I0
sg16
(lp954
I1
aI2
aI3
aI4
aI5
aI6
aI7
aI8
aI9
asg18
I00
sbag1
(g10
g3
Ntp955
Rp956
(dp957
g14
I7
sg15
I1
sg16
(lp958
I1
aI2
aI3
aI4
aI5
aI6
aI7
aI8
aI9
asg18
I00
sbag1
(g10
g3
Ntp959
Rp960
(dp961
g14
I7
sg15
I2
sg16
(lp962
I1
aI2
aI3
aI4
aI5
aI6
aI7
aI8
aI9
asg18
I00
sbag1
(g10
g3
Ntp963
Rp964
(dp965
g14
I7
sg15
I3
sg16
(lp966
I1
aI2
aI3
aI4
aI5
aI6
aI7
aI8
aI9
asg18
I00
sbag1
(g10
g3
Ntp967
Rp968
(dp969
g14
I7
sg15
I4
sg16
(lp970
I1
aI2
aI3
aI4
aI5
aI6
aI7
aI8
aI9
asg18
I00
sbag1
(g10
g3
Ntp971
Rp972
(dp973
g14
I7
sg15
I5
sg16
(lp974
I9
asg18
I01
sbag1
(g10
g3
Ntp975
Rp976
(dp977
g14
I7
sg15
I6
sg16
(lp978
I1
asg18
I01
sbag1
(g10
g3
Ntp979
Rp980
(dp981
g14
I7
sg15
I7
sg16
(lp982
I1
aI2
aI3
aI4
aI5
aI6
aI7
aI8
aI9
asg18
I00
sbag1
(g10
g3
Ntp983
Rp984
(dp985
g14
I7
sg15
I8
sg16
(lp986
I1
aI2
aI3
aI4
aI5
aI6
aI7
aI8
aI9
asg18
I00
sbaa(lp987
g1
(g10
g3
Ntp988
Rp989
(dp990
g14
I8
sg15
I0
sg16
(lp991
I8
asg18
I01
sbag1
(g10
g3
Ntp992
Rp993
(dp994
g14
I8
sg15
I1
sg16
(lp995
I3
asg18
I01
sbag1
(g10
g3
Ntp996
Rp997
(dp998
g14
I8
sg15
I2
sg16
(lp999
I9
asg18
I01
sbag1
(g10
g3
Ntp1000
Rp1001
(dp1002
g14
I8
sg15
I3
sg16
(lp1003
I7
asg18
I01
sbag1
(g10
g3
Ntp1004
Rp1005
(dp1006
g14
I8
sg15
I4
sg16
(lp1007
I1
aI2
aI3
aI4
aI5
aI6
aI7
aI8
aI9
asg18
I00
sbag1
(g10
g3
Ntp1008
Rp1009
(dp1010
g14
I8
sg15
I5
sg16
(lp1011
I1
aI2
aI3
aI4
aI5
aI6
aI7
aI8
aI9
asg18
I00
sbag1
(g10
g3
Ntp1012
Rp1013
(dp1014
g14
I8
sg15
I6
sg16
(lp1015
I6
asg18
I01
sbag1
(g10
g3
Ntp1016
Rp1017
(dp1018
g14
I8
sg15
I7
sg16
(lp1019
I1
aI2
aI3
aI4
aI5
aI6
aI7
aI8
aI9
asg18
I00
sbag1
(g10
g3
Ntp1020
Rp1021
(dp1022
g14
I8
sg15
I8
sg16
(lp1023
I4
asg18
I01
sbaasg347
S'HardBoard'
p1024
sbag1
(g2
g3
Ntp1025
Rp1026
(dp1027
g7
(lp1028
(lp1029
g1
(g10
g3
Ntp1030
Rp1031
(dp1032
g14
I0
sg15
I0
sg16
(lp1033
I7
asg18
I01
sbag1
(g10
g3
Ntp1034
Rp1035
(dp1036
g14
I0
sg15
I1
sg16
(lp1037
I1
aI2
aI3
aI4
aI5
aI6
aI7
aI8
aI9
asg18
I00
sbag1
(g10
g3
Ntp1038
Rp1039
(dp1040
g14
I0
sg15
I2
sg16
(lp1041
I1
aI2
aI3
aI4
aI5
aI6
aI7
aI8
aI9
asg18
I00
sbag1
(g10
g3
Ntp1042
Rp1043
(dp1044
g14
I0
sg15
I3
sg16
(lp1045
I1
aI2
aI3
aI4
aI5
aI6
aI7
aI8
aI9
asg18
I00
sbag1
(g10
g3
Ntp1046
Rp1047
(dp1048
g14
I0
sg15
I4
sg16
(lp1049
I1
aI2
aI3
aI4
aI5
aI6
aI7
aI8
aI9
asg18
I00
sbag1
(g10
g3
Ntp1050
Rp1051
(dp1052
g14
I0
sg15
I5
sg16
(lp1053
I4
asg18
I01
sbag1
(g10
g3
Ntp1054
Rp1055
(dp1056
g14
I0
sg15
I6
sg16
(lp1057
I1
asg18
I01
sbag1
(g10
g3
Ntp1058
Rp1059
(dp1060
g14
I0
sg15
I7
sg16
(lp1061
I1
aI2
aI3
aI4
aI5
aI6
aI7
aI8
aI9
asg18
I00
sbag1
(g10
g3
Ntp1062
Rp1063
(dp1064
g14
I0
sg15
I8
sg16
(lp1065
I9
asg18
I01
sbaa(lp1066
g1
(g10
g3
Ntp1067
Rp1068
(dp1069
g14
I1
sg15
I0
sg16
(lp1070
I1
aI2
aI3
aI4
aI5
aI6
aI7
aI8
aI9
asg18
I00
sbag1
(g10
g3
Ntp1071
Rp1072
(dp1073
g14
I1
sg15
I1
sg16
(lp1074
I9
asg18
I01
sbag1
(g10
g3
Ntp1075
Rp1076
(dp1077
g14
I1
sg15
I2
sg16
(lp1078
I1
aI2
aI3
aI4
aI5
aI6
aI7
aI8
aI9
asg18
I00
sbag1
(g10
g3
Ntp1079
Rp1080
(dp1081
g14
I1
sg15
I3
sg16
(lp1082
I1
asg18
I01
sbag1
(g10
g3
Ntp1083
Rp1084
(dp1085
g14
I1
sg15
I4
sg16
(lp1086
I1
aI2
aI3
aI4
aI5
aI6
aI7
aI8
aI9
asg18
I00
sbag1
(g10
g3
Ntp1087
Rp1088
(dp1089
g14
I1
sg15
I5
sg16
(lp1090
I7
asg18
I01
sbag1
(g10
g3
Ntp1091
Rp1092
(dp1093
g14
I1
sg15
I6
sg16
(lp1094
I1
aI2
aI3
aI4
aI5
aI6
aI7
aI8
aI9
asg18
I00
sbag1
(g10
g3
Ntp1095
Rp1096
(dp1097
g14
I1
sg15
I7
sg16
(lp1098
I1
aI2
aI3
aI4
aI5
aI6
aI7
aI8
aI9
asg18
I00
sbag1
(g10
g3
Ntp1099
Rp1100
(dp1101
g14
I1
sg15
I8
sg16
(lp1102
I8
asg18
I01
sbaa(lp1103
g1
(g10
g3
Ntp1104
Rp1105
(dp1106
g14
I2
sg15
I0
sg16
(lp1107
I1
aI2
aI3
aI4
aI5
aI6
aI7
aI8
aI9
asg18
I00
sbag1
(g10
g3
Ntp1108
Rp1109
(dp1110
g14
I2
sg15
I1
sg16
(lp1111
I1
aI2
aI3
aI4
aI5
aI6
aI7
aI8
aI9
asg18
I00
sbag1
(g10
g3
Ntp1112
Rp1113
(dp1114
g14
I2
sg15
I2
sg16
(lp1115
I1
aI2
aI3
aI4
aI5
aI6
aI7
aI8
aI9
asg18
I00
sbag1
(g10
g3
Ntp1116
Rp1117
(dp1118
g14
I2
sg15
I3
sg16
(lp1119
I1
aI2
aI3
aI4
aI5
aI6
aI7
aI8
aI9
asg18
I00
sbag1
(g10
g3
Ntp1120
Rp1121
(dp1122
g14
I2
sg15
I4
sg16
(lp1123
I6
asg18
I01
sbag1
(g10
g3
Ntp1124
Rp1125
(dp1126
g14
I2
sg15
I5
sg16
(lp1127
I1
aI2
aI3
aI4
aI5
aI6
aI7
aI8
aI9
asg18
I00
sbag1
(g10
g3
Ntp1128
Rp1129
(dp1130
g14
I2
sg15
I6
sg16
(lp1131
I2
asg18
I01
sbag1
(g10
g3
Ntp1132
Rp1133
(dp1134
g14
I2
sg15
I7
sg16
(lp1135
I7
asg18
I01
sbag1
(g10
g3
Ntp1136
Rp1137
(dp1138
g14
I2
sg15
I8
sg16
(lp1139
I5
asg18
I01
sbaa(lp1140
g1
(g10
g3
Ntp1141
Rp1142
(dp1143
g14
I3
sg15
I0
sg16
(lp1144
I1
aI2
aI3
aI4
aI5
aI6
aI7
aI8
aI9
asg18
I00
sbag1
(g10
g3
Ntp1145
Rp1146
(dp1147
g14
I3
sg15
I1
sg16
(lp1148
I2
asg18
I01
sbag1
(g10
g3
Ntp1149
Rp1150
(dp1151
g14
I3
sg15
I2
sg16
(lp1152
I1
aI2
aI3
aI4
aI5
aI6
aI7
aI8
aI9
asg18
I00
sbag1
(g10
g3
Ntp1153
Rp1154
(dp1155
g14
I3
sg15
I3
sg16
(lp1156
I1
aI2
aI3
aI4
aI5
aI6
aI7
aI8
aI9
asg18
I00
sbag1
(g10
g3
Ntp1157
Rp1158
(dp1159
g14
I3
sg15
I4
sg16
(lp1160
I1
aI2
aI3
aI4
aI5
aI6
aI7
aI8
aI9
asg18
I00
sbag1
(g10
g3
Ntp1161
Rp1162
(dp1163
g14
I3
sg15
I5
sg16
(lp1164
I6
asg18
I01
sbag1
(g10
g3
Ntp1165
Rp1166
(dp1167
g14
I3
sg15
I6
sg16
(lp1168
I7
asg18
I01
sbag1
(g10
g3
Ntp1169
Rp1170
(dp1171
g14
I3
sg15
I7
sg16
(lp1172
I1
aI2
aI3
aI4
aI5
aI6
aI7
aI8
aI9
asg18
I00
sbag1
(g10
g3
Ntp1173
Rp1174
(dp1175
g14
I3
sg15
I8
sg16
(lp1176
I1
asg18
I01
sbaa(lp1177
g1
(g10
g3
Ntp1178
Rp1179
(dp1180
g14
I4
sg15
I0
sg16
(lp1181
I1
aI2
aI3
aI4
aI5
aI6
aI7
aI8
aI9
asg18
I00
sbag1
(g10
g3
Ntp1182
Rp1183
(dp1184
g14
I4
sg15
I1
sg16
(lp1185
I1
asg18
I01
sbag1
(g10
g3
Ntp1186
Rp1187
(dp1188
g14
I4
sg15
I2
sg16
(lp1189
I1
aI2
aI3
aI4
aI5
aI6
aI7
aI8
aI9
asg18
I00
sbag1
(g10
g3
Ntp1190
Rp1191
(dp1192
g14
I4
sg15
I3
sg16
(lp1193
I1
aI2
aI3
aI4
aI5
aI6
aI7
aI8
aI9
asg18
I00
sbag1
(g10
g3
Ntp1194
Rp1195
(dp1196
g14
I4
sg15
I4
sg16
(lp1197
I1
aI2
aI3
aI4
aI5
aI6
aI7
aI8
aI9
asg18
I00
sbag1
(g10
g3
Ntp1198
Rp1199
(dp1200
g14
I4
sg15
I5
sg16
(lp1201
I1
aI2
aI3
aI4
aI5
aI6
aI7
aI8
aI9
asg18
I00
sbag1
(g10
g3
Ntp1202
Rp1203
(dp1204
g14
I4
sg15
I6
sg16
(lp1205
I1
aI2
aI3
aI4
aI5
aI6
aI7
aI8
aI9
asg18
I00
sbag1
(g10
g3
Ntp1206
Rp1207
(dp1208
g14
I4
sg15
I7
sg16
(lp1209
I2
asg18
I01
sbag1
(g10
g3
Ntp1210
Rp1211
(dp1212
g14
I4
sg15
I8
sg16
(lp1213
I1
aI2
aI3
aI4
aI5
aI6
aI7
aI8
aI9
asg18
I00
sbaa(lp1214
g1
(g10
g3
Ntp1215
Rp1216
(dp1217
g14
I5
sg15
I0
sg16
(lp1218
I6
asg18
I01
sbag1
(g10
g3
Ntp1219
Rp1220
(dp1221
g14
I5
sg15
I1
sg16
(lp1222
I1
aI2
aI3
aI4
aI5
aI6
aI7
aI8
aI9
asg18
I00
sbag1
(g10
g3
Ntp1223
Rp1224
(dp1225
g14
I5
sg15
I2
sg16
(lp1226
I9
asg18
I01
sbag1
(g10
g3
Ntp1227
Rp1228
(dp1229
g14
I5
sg15
I3
sg16
(lp1230
I2
asg18
I01
sbag1
(g10
g3
Ntp1231
Rp1232
(dp1233
g14
I5
sg15
I4
sg16
(lp1234
I1
aI2
aI3
aI4
aI5
aI6
aI7
aI8
aI9
asg18
I00
sbag1
(g10
g3
Ntp1235
Rp1236
(dp1237
g14
I5
sg15
I5
sg16
(lp1238
I1
aI2
aI3
aI4
aI5
aI6
aI7
aI8
aI9
asg18
I00
sbag1
(g10
g3
Ntp1239
Rp1240
(dp1241
g14
I5
sg15
I6
sg16
(lp1242
I1
aI2
aI3
aI4
aI5
aI6
aI7
aI8
aI9
asg18
I00
sbag1
(g10
g3
Ntp1243
Rp1244
(dp1245
g14
I5
sg15
I7
sg16
(lp1246
I8
asg18
I01
sbag1
(g10
g3
Ntp1247
Rp1248
(dp1249
g14
I5
sg15
I8
sg16
(lp1250
I1
aI2
aI3
aI4
aI5
aI6
aI7
aI8
aI9
asg18
I00
sbaa(lp1251
g1
(g10
g3
Ntp1252
Rp1253
(dp1254
g14
I6
sg15
I0
sg16
(lp1255
I9
asg18
I01
sbag1
(g10
g3
Ntp1256
Rp1257
(dp1258
g14
I6
sg15
I1
sg16
(lp1259
I8
asg18
I01
sbag1
(g10
g3
Ntp1260
Rp1261
(dp1262
g14
I6
sg15
I2
sg16
(lp1263
I7
asg18
I01
sbag1
(g10
g3
Ntp1264
Rp1265
(dp1266
g14
I6
sg15
I3
sg16
(lp1267
I1
aI2
aI3
aI4
aI5
aI6
aI7
aI8
aI9
asg18
I00
sbag1
(g10
g3
Ntp1268
Rp1269
(dp1270
g14
I6
sg15
I4
sg16
(lp1271
I3
asg18
I01
sbag1
(g10
g3
Ntp1272
Rp1273
(dp1274
g14
I6
sg15
I5
sg16
(lp1275
I1
aI2
aI3
aI4
aI5
aI6
aI7
aI8
aI9
asg18
I00
sbag1
(g10
g3
Ntp1276
Rp1277
(dp1278
g14
I6
sg15
I6
sg16
(lp1279
I1
aI2
aI3
aI4
aI5
aI6
aI7
aI8
aI9
asg18
I00
sbag1
(g10
g3
Ntp1280
Rp1281
(dp1282
g14
I6
sg15
I7
sg16
(lp1283
I1
aI2
aI3
aI4
aI5
aI6
aI7
aI8
aI9
asg18
I00
sbag1
(g10
g3
Ntp1284
Rp1285
(dp1286
g14
I6
sg15
I8
sg16
(lp1287
I1
aI2
aI3
aI4
aI5
aI6
aI7
aI8
aI9
asg18
I00
sbaa(lp1288
g1
(g10
g3
Ntp1289
Rp1290
(dp1291
g14
I7
sg15
I0
sg16
(lp1292
I1
asg18
I01
sbag1
(g10
g3
Ntp1293
Rp1294
(dp1295
g14
I7
sg15
I1
sg16
(lp1296
I1
aI2
aI3
aI4
aI5
aI6
aI7
aI8
aI9
asg18
I00
sbag1
(g10
g3
Ntp1297
Rp1298
(dp1299
g14
I7
sg15
I2
sg16
(lp1300
I1
aI2
aI3
aI4
aI5
aI6
aI7
aI8
aI9
asg18
I00
sbag1
(g10
g3
Ntp1301
Rp1302
(dp1303
g14
I7
sg15
I3
sg16
(lp1304
I5
asg18
I01
sbag1
(g10
g3
Ntp1305
Rp1306
(dp1307
g14
I7
sg15
I4
sg16
(lp1308
I1
aI2
aI3
aI4
aI5
aI6
aI7
aI8
aI9
asg18
I00
sbag1
(g10
g3
Ntp1309
Rp1310
(dp1311
g14
I7
sg15
I5
sg16
(lp1312
I8
asg18
I01
sbag1
(g10
g3
Ntp1313
Rp1314
(dp1315
g14
I7
sg15
I6
sg16
(lp1316
I1
aI2
aI3
aI4
aI5
aI6
aI7
aI8
aI9
asg18
I00
sbag1
(g10
g3
Ntp1317
Rp1318
(dp1319
g14
I7
sg15
I7
sg16
(lp1320
I9
asg18
I01
sbag1
(g10
g3
Ntp1321
Rp1322
(dp1323
g14
I7
sg15
I8
sg16
(lp1324
I1
aI2
aI3
aI4
aI5
aI6
aI7
aI8
aI9
asg18
I00
sbaa(lp1325
g1
(g10
g3
Ntp1326
Rp1327
(dp1328
g14
I8
sg15
I0
sg16
(lp1329
I4
asg18
I01
sbag1
(g10
g3
Ntp1330
Rp1331
(dp1332
g14
I8
sg15
I1
sg16
(lp1333
I1
aI2
aI3
aI4
aI5
aI6
aI7
aI8
aI9
asg18
I00
sbag1
(g10
g3
Ntp1334
Rp1335
(dp1336
g14
I8
sg15
I2
sg16
(lp1337
I6
asg18
I01
sbag1
(g10
g3
Ntp1338
Rp1339
(dp1340
g14
I8
sg15
I3
sg16
(lp1341
I9
asg18
I01
sbag1
(g10
g3
Ntp1342
Rp1343
(dp1344
g14
I8
sg15
I4
sg16
(lp1345
I1
aI2
aI3
aI4
aI5
aI6
aI7
aI8
aI9
asg18
I00
sbag1
(g10
g3
Ntp1346
Rp1347
(dp1348
g14
I8
sg15
I5
sg16
(lp1349
I1
aI2
aI3
aI4
aI5
aI6
aI7
aI8
aI9
asg18
I00
sbag1
(g10
g3
Ntp1350
Rp1351
(dp1352
g14
I8
sg15
I6
sg16
(lp1353
I1
aI2
aI3
aI4
aI5
aI6
aI7
aI8
aI9
asg18
I00
sbag1
(g10
g3
Ntp1354
Rp1355
(dp1356
g14
I8
sg15
I7
sg16
(lp1357
I1
aI2
aI3
aI4
aI5
aI6
aI7
aI8
aI9
asg18
I00
sbag1
(g10
g3
Ntp1358
Rp1359
(dp1360
g14
I8
sg15
I8
sg16
(lp1361
I3
asg18
I01
sbaasg347
S'EasyBoard'
p1362
sba.