(lp0
ccopy_reg
_reconstructor
p1
(c__main__
board
p2
c__builtin__
object
p3
Ntp4
Rp5
(dp6
S'board'
p7
(lp8
(lp9
g1
(c__main__
square
p10
g3
Ntp11
Rp12
(dp13
S'y'
p14
I0
sS'x'
p15
I0
sS'pot'
p16
(lp17
I1
aI2
aI3
aI4
aI5
aI6
aI7
aI8
aI9
asS'solved'
p18
I00
sbag1
(g10
g3
Ntp19
Rp20
(dp21
g14
I0
sg15
I1
sg16
(lp22
I7
asg18
I01
sbag1
(g10
g3
Ntp23
Rp24
(dp25
g14
I0
sg15
I2
sg16
(lp26
I1
aI2
aI3
aI4
aI5
aI6
aI7
aI8
aI9
asg18
I00
sbag1
(g10
g3
Ntp27
Rp28
(dp29
g14
I0
sg15
I3
sg16
(lp30
I2
asg18
I01
sbag1
(g10
g3
Ntp31
Rp32
(dp33
g14
I0
sg15
I4
sg16
(lp34
I3
asg18
I01
sbag1
(g10
g3
Ntp35
Rp36
(dp37
g14
I0
sg15
I5
sg16
(lp38
I8
asg18
I01
sbag1
(g10
g3
Ntp39
Rp40
(dp41
g14
I0
sg15
I6
sg16
(lp42
I1
aI2
aI3
aI4
aI5
aI6
aI7
aI8
aI9
asg18
I00
sbag1
(g10
g3
Ntp43
Rp44
(dp45
g14
I0
sg15
I7
sg16
(lp46
I1
aI2
aI3
aI4
aI5
aI6
aI7
aI8
aI9
asg18
I00
sbag1
(g10
g3
Ntp47
Rp48
(dp49
g14
I0
sg15
I8
sg16
(lp50
I1
aI2
aI3
aI4
aI5
aI6
aI7
aI8
aI9
asg18
I00
sbaa(lp51
g1
(g10
g3
Ntp52
Rp53
(dp54
g14
I1
sg15
I0
sg16
(lp55
I1
aI2
aI3
aI4
aI5
aI6
aI7
aI8
aI9
asg18
I00
sbag1
(g10
g3
Ntp56
Rp57
(dp58
g14
I1
sg15
I1
sg16
(lp59
I1
aI2
aI3
aI4
aI5
aI6
aI7
aI8
aI9
asg18
I00
sbag1
(g10
g3
Ntp60
Rp61
(dp62
g14
I1
sg15
I2
sg16
(lp63
I1
aI2
aI3
aI4
aI5
aI6
aI7
aI8
aI9
asg18
I00
sbag1
(g10
g3
Ntp64
Rp65
(dp66
g14
I1
sg15
I3
sg16
(lp67
I7
asg18
I01
sbag1
(g10
g3
Ntp68
Rp69
(dp70
g14
I1
sg15
I4
sg16
(lp71
I4
asg18
I01
sbag1
(g10
g3
Ntp72
Rp73
(dp74
g14
I1
sg15
I5
sg16
(lp75
I1
aI2
aI3
aI4
aI5
aI6
aI7
aI8
aI9
asg18
I00
sbag1
(g10
g3
Ntp76
Rp77
(dp78
g14
I1
sg15
I6
sg16
(lp79
I8
asg18
I01
sbag1
(g10
g3
Ntp80
Rp81
(dp82
g14
I1
sg15
I7
sg16
(lp83
I1
aI2
aI3
aI4
aI5
aI6
aI7
aI8
aI9
asg18
I00
sbag1
(g10
g3
Ntp84
Rp85
(dp86
g14
I1
sg15
I8
sg16
(lp87
I9
asg18
I01
sbaa(lp88
g1
(g10
g3
Ntp89
Rp90
(dp91
g14
I2
sg15
I0
sg16
(lp92
I1
aI2
aI3
aI4
aI5
aI6
aI7
aI8
aI9
asg18
I00
sbag1
(g10
g3
Ntp93
Rp94
(dp95
g14
I2
sg15
I1
sg16
(lp96
I6
asg18
I01
sbag1
(g10
g3
Ntp97
Rp98
(dp99
g14
I2
sg15
I2
sg16
(lp100
I8
asg18
I01
sbag1
(g10
g3
Ntp101
Rp102
(dp103
g14
I2
sg15
I3
sg16
(lp104
I1
asg18
I01
sbag1
(g10
g3
Ntp105
Rp106
(dp107
g14
I2
sg15
I4
sg16
(lp108
I1
aI2
aI3
aI4
aI5
aI6
aI7
aI8
aI9
asg18
I00
sbag1
(g10
g3
Ntp109
Rp110
(dp111
g14
I2
sg15
I5
sg16
(lp112
I9
asg18
I01
sbag1
(g10
g3
Ntp113
Rp114
(dp115
g14
I2
sg15
I6
sg16
(lp116
I1
aI2
aI3
aI4
aI5
aI6
aI7
aI8
aI9
asg18
I00
sbag1
(g10
g3
Ntp117
Rp118
(dp119
g14
I2
sg15
I7
sg16
(lp120
I1
aI2
aI3
aI4
aI5
aI6
aI7
aI8
aI9
asg18
I00
sbag1
(g10
g3
Ntp121
Rp122
(dp123
g14
I2
sg15
I8
sg16
(lp124
I2
asg18
I01
sbaa(lp125
g1
(g10
g3
Ntp126
Rp127
(dp128
g14
I3
sg15
I0
sg16
(lp129
I1
aI2
aI3
aI4
aI5
aI6
aI7
aI8
aI9
asg18
I00
sbag1
(g10
g3
Ntp130
Rp131
(dp132
g14
I3
sg15
I1
sg16
(lp133
I3
asg18
I01
sbag1
(g10
g3
Ntp134
Rp135
(dp136
g14
I3
sg15
I2
sg16
(lp137
I5
asg18
I01
sbag1
(g10
g3
Ntp138
Rp139
(dp140
g14
I3
sg15
I3
sg16
(lp141
I4
asg18
I01
sbag1
(g10
g3
Ntp142
Rp143
(dp144
g14
I3
sg15
I4
sg16
(lp145
I1
aI2
aI3
aI4
aI5
aI6
aI7
aI8
aI9
asg18
I00
sbag1
(g10
g3
Ntp146
Rp147
(dp148
g14
I3
sg15
I5
sg16
(lp149
I1
aI2
aI3
aI4
aI5
aI6
aI7
aI8
aI9
asg18
I00
sbag1
(g10
g3
Ntp150
Rp151
(dp152
g14
I3
sg15
I6
sg16
(lp153
I1
aI2
aI3
aI4
aI5
aI6
aI7
aI8
aI9
asg18
I00
sbag1
(g10
g3
Ntp154
Rp155
(dp156
g14
I3
sg15
I7
sg16
(lp157
I1
aI2
aI3
aI4
aI5
aI6
aI7
aI8
aI9
asg18
I00
sbag1
(g10
g3
Ntp158
Rp159
(dp160
g14
I3
sg15
I8
sg16
(lp161
I8
asg18
I01
sbaa(lp162
g1
(g10
g3
Ntp163
Rp164
(dp165
g14
I4
sg15
I0
sg16
(lp166
I6
asg18
I01
sbag1
(g10
g3
Ntp167
Rp168
(dp169
g14
I4
sg15
I1
sg16
(lp170
I1
aI2
aI3
aI4
aI5
aI6
aI7
aI8
aI9
asg18
I00
sbag1
(g10
g3
Ntp171
Rp172
(dp173
g14
I4
sg15
I2
sg16
(lp174
I7
asg18
I01
sbag1
(g10
g3
Ntp175
Rp176
(dp177
g14
I4
sg15
I3
sg16
(lp178
I8
asg18
I01
sbag1
(g10
g3
Ntp179
Rp180
(dp181
g14
I4
sg15
I4
sg16
(lp182
I1
aI2
aI3
aI4
aI5
aI6
aI7
aI8
aI9
asg18
I00
sbag1
(g10
g3
Ntp183
Rp184
(dp185
g14
I4
sg15
I5
sg16
(lp186
I2
asg18
I01
sbag1
(g10
g3
Ntp187
Rp188
(dp189
g14
I4
sg15
I6
sg16
(lp190
I5
asg18
I01
sbag1
(g10
g3
Ntp191
Rp192
(dp193
g14
I4
sg15
I7
sg16
(lp194
I1
aI2
aI3
aI4
aI5
aI6
aI7
aI8
aI9
asg18
I00
sbag1
(g10
g3
Ntp195
Rp196
(dp197
g14
I4
sg15
I8
sg16
(lp198
I1
asg18
I01
sbaa(lp199
g1
(g10
g3
Ntp200
Rp201
(dp202
g14
I5
sg15
I0
sg16
(lp203
I8
asg18
I01
sbag1
(g10
g3
Ntp204
Rp205
(dp206
g14
I5
sg15
I1
sg16
(lp207
I1
aI2
aI3
aI4
aI5
aI6
aI7
aI8
aI9
asg18
I00
sbag1
(g10
g3
Ntp208
Rp209
(dp210
g14
I5
sg15
I2
sg16
(lp211
I1
aI2
aI3
aI4
aI5
aI6
aI7
aI8
aI9
asg18
I00
sbag1
(g10
g3
Ntp212
Rp213
(dp214
g14
I5
sg15
I3
sg16
(lp215
I1
aI2
aI3
aI4
aI5
aI6
aI7
aI8
aI9
asg18
I00
sbag1
(g10
g3
Ntp216
Rp217
(dp218
g14
I5
sg15
I4
sg16
(lp219
I1
aI2
aI3
aI4
aI5
aI6
aI7
aI8
aI9
asg18
I00
sbag1
(g10
g3
Ntp220
Rp221
(dp222
g14
I5
sg15
I5
sg16
(lp223
I5
asg18
I01
sbag1
(g10
g3
Ntp224
Rp225
(dp226
g14
I5
sg15
I6
sg16
(lp227
I7
asg18
I01
sbag1
(g10
g3
Ntp228
Rp229
(dp230
g14
I5
sg15
I7
sg16
(lp231
I6
asg18
I01
sbag1
(g10
g3
Ntp232
Rp233
(dp234
g14
I5
sg15
I8
sg16
(lp235
I1
aI2
aI3
aI4
aI5
aI6
aI7
aI8
aI9
asg18
I00
sbaa(lp236
g1
(g10
g3
Ntp237
Rp238
(dp239
g14
I6
sg15
I0
sg16
(lp240
I2
asg18
I01
sbag1
(g10
g3
Ntp241
Rp242
(dp243
g14
I6
sg15
I1
sg16
(lp244
I1
aI2
aI3
aI4
aI5
aI6
aI7
aI8
aI9
asg18
I00
sbag1
(g10
g3
Ntp245
Rp246
(dp247
g14
I6
sg15
I2
sg16
(lp248
I1
aI2
aI3
aI4
aI5
aI6
aI7
aI8
aI9
asg18
I00
sbag1
(g10
g3
Ntp249
Rp250
(dp251
g14
I6
sg15
I3
sg16
(lp252
I6
asg18
I01
sbag1
(g10
g3
Ntp253
Rp254
(dp255
g14
I6
sg15
I4
sg16
(lp256
I1
aI2
aI3
aI4
aI5
aI6
aI7
aI8
aI9
asg18
I00
sbag1
(g10
g3
Ntp257
Rp258
(dp259
g14
I6
sg15
I5
sg16
(lp260
I3
asg18
I01
sbag1
(g10
g3
Ntp261
Rp262
(dp263
g14
I6
sg15
I6
sg16
(lp264
I1
asg18
I01
sbag1
(g10
g3
Ntp265
Rp266
(dp267
g14
I6
sg15
I7
sg16
(lp268
I9
asg18
I01
sbag1
(g10
g3
Ntp269
Rp270
(dp271
g14
I6
sg15
I8
sg16
(lp272
I1
aI2
aI3
aI4
aI5
aI6
aI7
aI8
aI9
asg18
I00
sbaa(lp273
g1
(g10
g3
Ntp274
Rp275
(dp276
g14
I7
sg15
I0
sg16
(lp277
I7
asg18
I01
sbag1
(g10
g3
Ntp278
Rp279
(dp280
g14
I7
sg15
I1
sg16
(lp281
I1
aI2
aI3
aI4
aI5
aI6
aI7
aI8
aI9
asg18
I00
sbag1
(g10
g3
Ntp282
Rp283
(dp284
g14
I7
sg15
I2
sg16
(lp285
I9
asg18
I01
sbag1
(g10
g3
Ntp286
Rp287
(dp288
g14
I7
sg15
I3
sg16
(lp289
I1
aI2
aI3
aI4
aI5
aI6
aI7
aI8
aI9
asg18
I00
sbag1
(g10
g3
Ntp290
Rp291
(dp292
g14
I7
sg15
I4
sg16
(lp293
I2
asg18
I01
sbag1
(g10
g3
Ntp294
Rp295
(dp296
g14
I7
sg15
I5
sg16
(lp297
I1
asg18
I01
sbag1
(g10
g3
Ntp298
Rp299
(dp300
g14
I7
sg15
I6
sg16
(lp301
I1
aI2
aI3
aI4
aI5
aI6
aI7
aI8
aI9
asg18
I00
sbag1
(g10
g3
Ntp302
Rp303
(dp304
g14
I7
sg15
I7
sg16
(lp305
I1
aI2
aI3
aI4
aI5
aI6
aI7
aI8
aI9
asg18
I00
sbag1
(g10
g3
Ntp306
Rp307
(dp308
g14
I7
sg15
I8
sg16
(lp309
I1
aI2
aI3
aI4
aI5
aI6
aI7
aI8
aI9
asg18
I00
sbaa(lp310
g1
(g10
g3
Ntp311
Rp312
(dp313
g14
I8
sg15
I0
sg16
(lp314
I1
aI2
aI3
aI4
aI5
aI6
aI7
aI8
aI9
asg18
I00
sbag1
(g10
g3
Ntp315
Rp316
(dp317
g14
I8
sg15
I1
sg16
(lp318
I1
aI2
aI3
aI4
aI5
aI6
aI7
aI8
aI9
asg18
I00
sbag1
(g10
g3
Ntp319
Rp320
(dp321
g14
I8
sg15
I2
sg16
(lp322
I1
aI2
aI3
aI4
aI5
aI6
aI7
aI8
aI9
asg18
I00
sbag1
(g10
g3
Ntp323
Rp324
(dp325
g14
I8
sg15
I3
sg16
(lp326
I9
asg18
I01
sbag1
(g10
g3
Ntp327
Rp328
(dp329
g14
I8
sg15
I4
sg16
(lp330
I7
asg18
I01
sbag1
(g10
g3
Ntp331
Rp332
(dp333
g14
I8
sg15
I5
sg16
(lp334
I4
asg18
I01
sbag1
(g10
g3
Ntp335
Rp336
(dp337
g14
I8
sg15
I6
sg16
(lp338
I1
aI2
aI3
aI4
aI5
aI6
aI7
aI8
aI9
asg18
I00
sbag1
(g10
g3
Ntp339
Rp340
(dp341
g14
I8
sg15
I7
sg16
(lp342
I8
asg18
I01
sbag1
(g10
g3
Ntp343
Rp344
(dp345
g14
I8
sg15
I8
sg16
(lp346
I1
aI2
aI3
aI4
aI5
aI6
aI7
aI8
aI9
asg18
I00
sbaasba.